(lp0
(dp1
S'listbox0'
p2
VOption 1
p3
sS'text0'
p4
Vchandy
p5
sS'radio0'
p6
VOption 1
p7
sa(dp8
S'listbox0'
p9
VOption 1
p10
sS'text0'
p11
Vchandy
p12
sS'radio0'
p13
VOption 1
p14
sa(dp15
S'listbox0'
p16
VOption 1
p17
sS'text0'
p18
Vchandy
p19
sS'radio0'
p20
VOption 1
p21
sa(dp22
S'listbox0'
p23
VOption 2
p24
sS'text0'
p25
Vsdgf
p26
sS'radio0'
p27
VOption 1
p28
sa.